; Function Attrs: nounwind uwtable
define void @lv_font_glyph_release_draw_data(ptr noundef %0) local_unnamed_addr #0 {
  %2 = load ptr, ptr %0, align 8, !tbaa !3
  %.not = icmp eq ptr %2, null
  br i1 %.not, label %7, label %3

3:                                                ; preds = %1
  %4 = getelementptr inbounds nuw i8, ptr %2, i64 16
  %5 = load ptr, ptr %4, align 8, !tbaa !14
  %.not7 = icmp eq ptr %5, null
  br i1 %.not7, label %7, label %6

6:                                                ; preds = %3
  tail call void %5(ptr noundef nonnull %2, ptr noundef nonnull %0) #5
  br label %7

7:                                                ; preds = %6, %3, %1
  ret void
}